target datalayout = "e-m:e-p270:32:32-p271:32:32-p272:64:64-i64:64-i128:128-f80:128-n8:16:32:64-S128"
target triple = "x86_64-pc-linux-gnu"

%struct.RBasic = type { i64, i64 }

; Function Attrs: inlinehint nounwind sspstrong willreturn memory(none) uwtable
define internal zeroext i1 @RB_IMMEDIATE_P(i64 noundef %0) #7 {
  %2 = alloca i64, align 8
  store i64 %0, ptr %2, align 8, !tbaa !17
  %3 = load i64, ptr %2, align 8, !tbaa !17
  %4 = and i64 %3, 7
  %5 = icmp ne i64 %4, 0
  ret i1 %5
}

; Function Attrs: inlinehint nounwind sspstrong willreturn memory(read) uwtable
define internal i32 @RB_BUILTIN_TYPE(i64 noundef %0) #3 {
  %2 = alloca i64, align 8
  %3 = alloca i64, align 8
  store i64 %0, ptr %2, align 8, !tbaa !17
  call void @llvm.lifetime.start.p0(i64 8, ptr %3) #24
  %4 = load i64, ptr %2, align 8, !tbaa !17
  %5 = inttoptr i64 %4 to ptr
  %6 = getelementptr inbounds nuw %struct.RBasic, ptr %5, i32 0, i32 0
  %7 = load i64, ptr %6, align 8, !tbaa !70
  %8 = and i64 %7, 31
  store i64 %8, ptr %3, align 8, !tbaa !17
  %9 = load i64, ptr %3, align 8, !tbaa !17
  %10 = trunc i64 %9 to i32
  call void @llvm.lifetime.end.p0(i64 8, ptr %3) #24
  ret i32 %10
}

; Function Attrs: inlinehint nounwind sspstrong willreturn memory(none) uwtable
define internal zeroext i1 @RB_SPECIAL_CONST_P(i64 noundef %0) #7 {
  %2 = alloca i64, align 8
  store i64 %0, ptr %2, align 8, !tbaa !17
  %3 = load i64, ptr %2, align 8, !tbaa !17
  %4 = icmp eq i64 %3, 0
  br i1 %4, label %8, label %5

5:                                                ; preds = %1
  %6 = load i64, ptr %2, align 8, !tbaa !17
  %7 = call zeroext i1 @RB_IMMEDIATE_P(i64 noundef %6) #28
  br label %8

8:                                                ; preds = %5, %1
  %9 = phi i1 [ true, %1 ], [ %7, %5 ]
  ret i1 %9
}

; Function Attrs: inlinehint nounwind sspstrong uwtable
define internal i64 @obj_resurrect(i64 noundef %0) #5 {
  %2 = alloca i64, align 8
  store i64 %0, ptr %2, align 8, !tbaa !17
  %3 = load i64, ptr %2, align 8, !tbaa !17
  %4 = call zeroext i1 @RB_SPECIAL_CONST_P(i64 noundef %3) #28
  br i1 %4, label %25, label %5

5:                                                ; preds = %1
  %6 = load i64, ptr %2, align 8, !tbaa !17
  %7 = inttoptr i64 %6 to ptr
  %8 = getelementptr inbounds nuw %struct.RBasic, ptr %7, i32 0, i32 1
  %9 = load i64, ptr %8, align 8, !tbaa !257
  %10 = icmp ne i64 %9, 0
  br i1 %10, label %25, label %11

11:                                               ; preds = %5
  %12 = load i64, ptr %2, align 8, !tbaa !17
  %13 = call i32 @RB_BUILTIN_TYPE(i64 noundef %12) #25
  switch i32 %13, label %23 [
    i32 5, label %14
    i32 7, label %17
    i32 8, label %20
  ]

14:                                               ; preds = %11
  %15 = load i64, ptr %2, align 8, !tbaa !17
  %16 = call i64 @rb_str_resurrect(i64 noundef %15)
  store i64 %16, ptr %2, align 8, !tbaa !17
  br label %24

17:                                               ; preds = %11
  %18 = load i64, ptr %2, align 8, !tbaa !17
  %19 = call i64 @rb_ary_resurrect(i64 noundef %18)
  store i64 %19, ptr %2, align 8, !tbaa !17
  br label %24

20:                                               ; preds = %11
  %21 = load i64, ptr %2, align 8, !tbaa !17
  %22 = call i64 @rb_hash_resurrect(i64 noundef %21)
  store i64 %22, ptr %2, align 8, !tbaa !17
  br label %24

23:                                               ; preds = %11
  br label %24

24:                                               ; preds = %23, %20, %17, %14
  br label %25

25:                                               ; preds = %24, %5, %1
  %26 = load i64, ptr %2, align 8, !tbaa !17
  ret i64 %26
}

; Function Attrs: nounwind sspstrong uwtable
define internal i32 @cdhash_each(i64 noundef %0, i64 noundef %1, i64 noundef %2) #0 {
  %4 = alloca i64, align 8
  %5 = alloca i64, align 8
  %6 = alloca i64, align 8
  store i64 %0, ptr %4, align 8, !tbaa !17
  store i64 %1, ptr %5, align 8, !tbaa !17
  store i64 %2, ptr %6, align 8, !tbaa !17
  %7 = load i64, ptr %6, align 8, !tbaa !17
  %8 = load i64, ptr %4, align 8, !tbaa !17
  %9 = call i64 @obj_resurrect(i64 noundef %8)
  %10 = call i64 @rb_ary_push(i64 noundef %7, i64 noundef %9)
  %11 = load i64, ptr %6, align 8, !tbaa !17
  %12 = load i64, ptr %5, align 8, !tbaa !17
  %13 = call i64 @rb_ary_push(i64 noundef %11, i64 noundef %12)
  ret i32 0
}