; Function Attrs: nounwind sspstrong uwtable
define internal noundef i32 @cdhash_each(i64 noundef %0, i64 noundef %1, i64 noundef %2) #0 {
  %4 = icmp eq i64 %0, 0
  %5 = and i64 %0, 7
  %6 = icmp ne i64 %5, 0
  %7 = or i1 %4, %6
  br i1 %7, label %obj_resurrect.exit, label %8

8:                                                ; preds = %3
  %9 = inttoptr i64 %0 to ptr
  %10 = getelementptr inbounds nuw i8, ptr %9, i64 8
  %11 = load i64, ptr %10, align 8, !tbaa !245
  %.not.i = icmp eq i64 %11, 0
  br i1 %.not.i, label %12, label %obj_resurrect.exit

12:                                               ; preds = %8
  %13 = load i64, ptr %9, align 8, !tbaa !74
  %14 = trunc i64 %13 to i32
  %15 = and i32 %14, 31
  switch i32 %15, label %obj_resurrect.exit [
    i32 5, label %16
    i32 7, label %18
    i32 8, label %20
  ]

16:                                               ; preds = %12
  %17 = tail call i64 @rb_str_resurrect(i64 noundef %0) #20
  br label %obj_resurrect.exit

18:                                               ; preds = %12
  %19 = tail call i64 @rb_ary_resurrect(i64 noundef %0) #20
  br label %obj_resurrect.exit

20:                                               ; preds = %12
  %21 = tail call i64 @rb_hash_resurrect(i64 noundef %0) #20
  br label %obj_resurrect.exit

obj_resurrect.exit:                               ; preds = %3, %8, %12, %16, %18, %20
  %.0.i = phi i64 [ %0, %3 ], [ %0, %8 ], [ %0, %12 ], [ %21, %20 ], [ %19, %18 ], [ %17, %16 ]
  %22 = tail call i64 @rb_ary_push(i64 noundef %2, i64 noundef %.0.i) #20
  %23 = tail call i64 @rb_ary_push(i64 noundef %2, i64 noundef %1) #20
  ret i32 0
}